; Function Attrs: mustprogress nofree norecurse nosync nounwind memory(readwrite, inaccessiblemem: none) uwtable
define hidden void @_ZN2cv8ximgproc15ScanSegmentImpl3OP4ERKSt4pairIiiE(ptr noundef nonnull readonly align 8 captures(none) dereferenceable(7144) %0, ptr noundef nonnull readonly align 4 captures(none) dereferenceable(8) %1) local_unnamed_addr #17 align 2 {
  %3 = load i32, ptr %1, align 4, !tbaa !98
  %4 = getelementptr inbounds nuw i8, ptr %1, i64 4
  %5 = load i32, ptr %4, align 4, !tbaa !100
  %6 = icmp slt i32 %3, %5
  br i1 %6, label %.lr.ph, label %._crit_edge

.lr.ph:                                           ; preds = %2
  %7 = getelementptr inbounds nuw i8, ptr %0, i64 5832
  %8 = load ptr, ptr %7, align 8, !tbaa !66
  %9 = getelementptr inbounds nuw i8, ptr %0, i64 7064
  %10 = load ptr, ptr %9, align 8
  %11 = getelementptr inbounds nuw i8, ptr %0, i64 3688
  %12 = load ptr, ptr %11, align 8
  %13 = sext i32 %3 to i64
  br label %14

._crit_edge:                                      ; preds = %27, %2
  ret void

14:                                               ; preds = %.lr.ph, %27
  %indvars.iv = phi i64 [ %13, %.lr.ph ], [ %indvars.iv.next, %27 ]
  %15 = getelementptr inbounds i8, ptr %8, i64 %indvars.iv
  %16 = load i8, ptr %15, align 1, !tbaa !103
  %17 = icmp eq i8 %16, 0
  br i1 %17, label %18, label %23

18:                                               ; preds = %14
  %19 = getelementptr inbounds i32, ptr %12, i64 %indvars.iv
  %20 = load i32, ptr %19, align 4, !tbaa !76
  %21 = add nsw i32 %20, -1
  %22 = getelementptr inbounds i32, ptr %10, i64 %indvars.iv
  store i32 %21, ptr %22, align 4, !tbaa !76
  br label %27

23:                                               ; preds = %14
  %24 = getelementptr inbounds i32, ptr %10, i64 %indvars.iv
  %25 = load i32, ptr %24, align 4, !tbaa !76
  %26 = add nsw i32 %25, -1
  store i32 %26, ptr %24, align 4, !tbaa !76
  br label %27

27:                                               ; preds = %18, %23
  %indvars.iv.next = add nsw i64 %indvars.iv, 1
  %28 = load i32, ptr %4, align 4, !tbaa !100
  %29 = sext i32 %28 to i64
  %30 = icmp slt i64 %indvars.iv.next, %29
  br i1 %30, label %14, label %._crit_edge, !llvm.loop !185
}